target datalayout = "e-m:e-p270:32:32-p271:32:32-p272:64:64-i64:64-i128:128-f80:128-n8:16:32:64-S128"
target triple = "x86_64-pc-linux-gnu"

%struct.URLContext = type { ptr, ptr, ptr, ptr, i32, i32, i32, i32, %struct.AVIOInterruptCB, i64, ptr, ptr, i32 }
%struct.AVIOInterruptCB = type { ptr, ptr }
%struct.FTPContext = type { ptr, ptr, ptr, [1024 x i8], ptr, ptr, i32, i32, ptr, ptr, ptr, ptr, i64, i64, i32, ptr, i32, i32, i32, ptr, ptr, i64, i64, i32, ptr, ptr }

@ftp_move.rnfr_codes = internal constant [9 x i32] [i32 350, i32 421, i32 450, i32 500, i32 501, i32 502, i32 503, i32 530, i32 0], align 16
@ftp_move.rnto_codes = internal constant [10 x i32] [i32 250, i32 421, i32 500, i32 501, i32 502, i32 503, i32 530, i32 532, i32 553, i32 0], align 16
@.str.71 = private unnamed_addr constant [10 x i8] c"RNFR %s\0D\0A\00", align 1
@.str.72 = private unnamed_addr constant [10 x i8] c"RNTO %s\0D\0A\00", align 1

; Function Attrs: nounwind uwtable
define internal void @ftp_close_data_connection(ptr noundef %0) #0 {
  %2 = alloca ptr, align 8
  store ptr %0, ptr %2, align 8, !tbaa !19
  %3 = load ptr, ptr %2, align 8, !tbaa !19
  %4 = getelementptr inbounds nuw %struct.FTPContext, ptr %3, i32 0, i32 2
  %5 = call i32 @ffurl_closep(ptr noundef %4)
  %6 = load ptr, ptr %2, align 8, !tbaa !19
  %7 = getelementptr inbounds nuw %struct.FTPContext, ptr %6, i32 0, i32 17
  store i32 5, ptr %7, align 4, !tbaa !23
  ret void
}

; Function Attrs: nounwind uwtable
define internal void @ftp_close_both_connections(ptr noundef %0) #0 {
  %2 = alloca ptr, align 8
  store ptr %0, ptr %2, align 8, !tbaa !19
  %3 = load ptr, ptr %2, align 8, !tbaa !19
  %4 = getelementptr inbounds nuw %struct.FTPContext, ptr %3, i32 0, i32 1
  %5 = call i32 @ffurl_closep(ptr noundef %4)
  %6 = load ptr, ptr %2, align 8, !tbaa !19
  call void @ftp_close_data_connection(ptr noundef %6)
  ret void
}

; Function Attrs: inlinehint nounwind uwtable
define internal i32 @ffurl_write(ptr noundef %0, ptr noundef %1, i32 noundef %2) #3 {
  %4 = alloca ptr, align 8
  %5 = alloca ptr, align 8
  %6 = alloca i32, align 4
  store ptr %0, ptr %4, align 8, !tbaa !4
  store ptr %1, ptr %5, align 8, !tbaa !9
  store i32 %2, ptr %6, align 4, !tbaa !11
  %7 = load ptr, ptr %4, align 8, !tbaa !4
  %8 = load ptr, ptr %5, align 8, !tbaa !9
  %9 = load i32, ptr %6, align 4, !tbaa !11
  %10 = call i32 @ffurl_write2(ptr noundef %7, ptr noundef %8, i32 noundef %9)
  ret i32 %10
}

; Function Attrs: nounwind uwtable
define internal i32 @ftp_close(ptr noundef %0) #0 {
  %2 = alloca ptr, align 8
  %3 = alloca ptr, align 8
  store ptr %0, ptr %2, align 8, !tbaa !4
  call void @llvm.lifetime.start.p0(i64 8, ptr %3) #9
  %4 = load ptr, ptr %2, align 8, !tbaa !4
  %5 = getelementptr inbounds nuw %struct.URLContext, ptr %4, i32 0, i32 2
  %6 = load ptr, ptr %5, align 8, !tbaa !13
  store ptr %6, ptr %3, align 8, !tbaa !19
  br label %7

7:                                                ; preds = %1
  br label %8

8:                                                ; preds = %7
  br label %9

9:                                                ; preds = %8
  %10 = load ptr, ptr %3, align 8, !tbaa !19
  call void @ftp_close_both_connections(ptr noundef %10)
  %11 = load ptr, ptr %3, align 8, !tbaa !19
  %12 = getelementptr inbounds nuw %struct.FTPContext, ptr %11, i32 0, i32 9
  call void @av_freep(ptr noundef %12)
  %13 = load ptr, ptr %3, align 8, !tbaa !19
  %14 = getelementptr inbounds nuw %struct.FTPContext, ptr %13, i32 0, i32 10
  call void @av_freep(ptr noundef %14)
  %15 = load ptr, ptr %3, align 8, !tbaa !19
  %16 = getelementptr inbounds nuw %struct.FTPContext, ptr %15, i32 0, i32 8
  call void @av_freep(ptr noundef %16)
  %17 = load ptr, ptr %3, align 8, !tbaa !19
  %18 = getelementptr inbounds nuw %struct.FTPContext, ptr %17, i32 0, i32 11
  call void @av_freep(ptr noundef %18)
  %19 = load ptr, ptr %3, align 8, !tbaa !19
  %20 = getelementptr inbounds nuw %struct.FTPContext, ptr %19, i32 0, i32 19
  call void @av_freep(ptr noundef %20)
  call void @llvm.lifetime.end.p0(i64 8, ptr %3) #9
  ret i32 0
}

; Function Attrs: nounwind uwtable
define internal i32 @ftp_send_command(ptr noundef %0, ptr noundef %1, ptr noundef %2, ptr noundef %3) #0 {
  %5 = alloca i32, align 4
  %6 = alloca ptr, align 8
  %7 = alloca ptr, align 8
  %8 = alloca ptr, align 8
  %9 = alloca ptr, align 8
  %10 = alloca i32, align 4
  %11 = alloca i32, align 4
  store ptr %0, ptr %6, align 8, !tbaa !19
  store ptr %1, ptr %7, align 8, !tbaa !9
  store ptr %2, ptr %8, align 8, !tbaa !64
  store ptr %3, ptr %9, align 8, !tbaa !62
  call void @llvm.lifetime.start.p0(i64 4, ptr %10) #9
  br label %12

12:                                               ; preds = %4
  br label %13

13:                                               ; preds = %12
  br label %14

14:                                               ; preds = %13
  %15 = load ptr, ptr %9, align 8, !tbaa !62
  %16 = icmp ne ptr %15, null
  br i1 %16, label %17, label %19

17:                                               ; preds = %14
  %18 = load ptr, ptr %9, align 8, !tbaa !62
  store ptr null, ptr %18, align 8, !tbaa !9
  br label %19

19:                                               ; preds = %17, %14
  %20 = load ptr, ptr %6, align 8, !tbaa !19
  %21 = getelementptr inbounds nuw %struct.FTPContext, ptr %20, i32 0, i32 1
  %22 = load ptr, ptr %21, align 8, !tbaa !56
  %23 = icmp ne ptr %22, null
  br i1 %23, label %25, label %24

24:                                               ; preds = %19
  store i32 -5, ptr %5, align 4
  store i32 1, ptr %11, align 4
  br label %50

25:                                               ; preds = %19
  %26 = load ptr, ptr %6, align 8, !tbaa !19
  %27 = getelementptr inbounds nuw %struct.FTPContext, ptr %26, i32 0, i32 1
  %28 = load ptr, ptr %27, align 8, !tbaa !56
  %29 = load ptr, ptr %7, align 8, !tbaa !9
  %30 = load ptr, ptr %7, align 8, !tbaa !9
  %31 = call i64 @strlen(ptr noundef %30) #10
  %32 = trunc i64 %31 to i32
  %33 = call i32 @ffurl_write(ptr noundef %28, ptr noundef %29, i32 noundef %32)
  store i32 %33, ptr %10, align 4, !tbaa !11
  %34 = icmp slt i32 %33, 0
  br i1 %34, label %35, label %37

35:                                               ; preds = %25
  %36 = load i32, ptr %10, align 4, !tbaa !11
  store i32 %36, ptr %5, align 4
  store i32 1, ptr %11, align 4
  br label %50

37:                                               ; preds = %25
  %38 = load i32, ptr %10, align 4, !tbaa !11
  %39 = icmp ne i32 %38, 0
  br i1 %39, label %41, label %40

40:                                               ; preds = %37
  store i32 -1, ptr %5, align 4
  store i32 1, ptr %11, align 4
  br label %50

41:                                               ; preds = %37
  %42 = load ptr, ptr %8, align 8, !tbaa !64
  %43 = icmp ne ptr %42, null
  br i1 %43, label %44, label %49

44:                                               ; preds = %41
  %45 = load ptr, ptr %6, align 8, !tbaa !19
  %46 = load ptr, ptr %9, align 8, !tbaa !62
  %47 = load ptr, ptr %8, align 8, !tbaa !64
  %48 = call i32 @ftp_status(ptr noundef %45, ptr noundef %46, ptr noundef %47)
  store i32 %48, ptr %5, align 4
  store i32 1, ptr %11, align 4
  br label %50

49:                                               ; preds = %41
  store i32 0, ptr %5, align 4
  store i32 1, ptr %11, align 4
  br label %50

50:                                               ; preds = %49, %44, %40, %35, %24
  call void @llvm.lifetime.end.p0(i64 4, ptr %10) #9
  %51 = load i32, ptr %5, align 4
  ret i32 %51
}

; Function Attrs: nounwind uwtable
define internal i32 @ftp_move(ptr noundef %0, ptr noundef %1) #0 {
  %3 = alloca ptr, align 8
  %4 = alloca ptr, align 8
  %5 = alloca ptr, align 8
  %6 = alloca [4096 x i8], align 16
  %7 = alloca [4096 x i8], align 16
  %8 = alloca i32, align 4
  store ptr %0, ptr %3, align 8, !tbaa !4
  store ptr %1, ptr %4, align 8, !tbaa !4
  call void @llvm.lifetime.start.p0(i64 8, ptr %5) #9
  %9 = load ptr, ptr %3, align 8, !tbaa !4
  %10 = getelementptr inbounds nuw %struct.URLContext, ptr %9, i32 0, i32 2
  %11 = load ptr, ptr %10, align 8, !tbaa !13
  store ptr %11, ptr %5, align 8, !tbaa !19
  call void @llvm.lifetime.start.p0(i64 4096, ptr %6) #9
  call void @llvm.lifetime.start.p0(i64 4096, ptr %7) #9
  call void @llvm.lifetime.start.p0(i64 4, ptr %8) #9
  %12 = load ptr, ptr %3, align 8, !tbaa !4
  %13 = load ptr, ptr %3, align 8, !tbaa !4
  %14 = getelementptr inbounds nuw %struct.URLContext, ptr %13, i32 0, i32 3
  %15 = load ptr, ptr %14, align 8, !tbaa !28
  %16 = call i32 @ftp_connect(ptr noundef %12, ptr noundef %15)
  store i32 %16, ptr %8, align 4, !tbaa !11
  %17 = icmp slt i32 %16, 0
  br i1 %17, label %18, label %19

18:                                               ; preds = %2
  br label %55

19:                                               ; preds = %2
  %20 = getelementptr inbounds [4096 x i8], ptr %6, i64 0, i64 0
  %21 = load ptr, ptr %5, align 8, !tbaa !19
  %22 = getelementptr inbounds nuw %struct.FTPContext, ptr %21, i32 0, i32 11
  %23 = load ptr, ptr %22, align 8, !tbaa !44
  %24 = call i32 (ptr, i64, ptr, ...) @snprintf(ptr noundef %20, i64 noundef 4096, ptr noundef @.str.71, ptr noundef %23) #9
  store i32 %24, ptr %8, align 4, !tbaa !11
  %25 = load i32, ptr %8, align 4, !tbaa !11
  %26 = sext i32 %25 to i64
  %27 = icmp uge i64 %26, 4096
  br i1 %27, label %28, label %29

28:                                               ; preds = %19
  store i32 -38, ptr %8, align 4, !tbaa !11
  br label %55

29:                                               ; preds = %19
  %30 = load ptr, ptr %5, align 8, !tbaa !19
  %31 = getelementptr inbounds [4096 x i8], ptr %6, i64 0, i64 0
  %32 = call i32 @ftp_send_command(ptr noundef %30, ptr noundef %31, ptr noundef @ftp_move.rnfr_codes, ptr noundef null)
  %33 = icmp ne i32 %32, 350
  br i1 %33, label %34, label %35

34:                                               ; preds = %29
  store i32 -5, ptr %8, align 4, !tbaa !11
  br label %55

35:                                               ; preds = %29
  %36 = getelementptr inbounds [4096 x i8], ptr %7, i64 0, i64 0
  %37 = load ptr, ptr %4, align 8, !tbaa !4
  %38 = getelementptr inbounds nuw %struct.URLContext, ptr %37, i32 0, i32 3
  %39 = load ptr, ptr %38, align 8, !tbaa !28
  call void @av_url_split(ptr noundef null, i32 noundef 0, ptr noundef null, i32 noundef 0, ptr noundef null, i32 noundef 0, ptr noundef null, ptr noundef %36, i32 noundef 4096, ptr noundef %39)
  %40 = getelementptr inbounds [4096 x i8], ptr %6, i64 0, i64 0
  %41 = getelementptr inbounds [4096 x i8], ptr %7, i64 0, i64 0
  %42 = call i32 (ptr, i64, ptr, ...) @snprintf(ptr noundef %40, i64 noundef 4096, ptr noundef @.str.72, ptr noundef %41) #9
  store i32 %42, ptr %8, align 4, !tbaa !11
  %43 = load i32, ptr %8, align 4, !tbaa !11
  %44 = sext i32 %43 to i64
  %45 = icmp uge i64 %44, 4096
  br i1 %45, label %46, label %47

46:                                               ; preds = %35
  store i32 -38, ptr %8, align 4, !tbaa !11
  br label %55

47:                                               ; preds = %35
  %48 = load ptr, ptr %5, align 8, !tbaa !19
  %49 = getelementptr inbounds [4096 x i8], ptr %6, i64 0, i64 0
  %50 = call i32 @ftp_send_command(ptr noundef %48, ptr noundef %49, ptr noundef @ftp_move.rnto_codes, ptr noundef null)
  %51 = icmp eq i32 %50, 250
  br i1 %51, label %52, label %53

52:                                               ; preds = %47
  store i32 0, ptr %8, align 4, !tbaa !11
  br label %54

53:                                               ; preds = %47
  store i32 -5, ptr %8, align 4, !tbaa !11
  br label %54

54:                                               ; preds = %53, %52
  br label %55

55:                                               ; preds = %54, %46, %34, %28, %18
  %56 = load ptr, ptr %3, align 8, !tbaa !4
  %57 = call i32 @ftp_close(ptr noundef %56)
  %58 = load i32, ptr %8, align 4, !tbaa !11
  call void @llvm.lifetime.end.p0(i64 4, ptr %8) #9
  call void @llvm.lifetime.end.p0(i64 4096, ptr %7) #9
  call void @llvm.lifetime.end.p0(i64 4096, ptr %6) #9
  call void @llvm.lifetime.end.p0(i64 8, ptr %5) #9
  ret i32 %58
}