; Function Attrs: nounwind uwtable
define internal range(i32 -2147483648, 1) i32 @ftp_move(ptr noundef %0, ptr noundef readonly captures(none) %1) #0 {
  %3 = alloca [4096 x i8], align 16
  %4 = alloca [4096 x i8], align 16
  %5 = getelementptr inbounds nuw i8, ptr %0, i64 16
  %6 = load ptr, ptr %5, align 8, !tbaa !4
  call void @llvm.lifetime.start.p0(i64 4096, ptr nonnull %3) #10
  call void @llvm.lifetime.start.p0(i64 4096, ptr nonnull %4) #10
  %7 = getelementptr inbounds nuw i8, ptr %0, i64 24
  %8 = load ptr, ptr %7, align 8, !tbaa !26
  %9 = tail call fastcc i32 @ftp_connect(ptr noundef %0, ptr noundef %8)
  %10 = icmp slt i32 %9, 0
  br i1 %10, label %ftp_send_command.exit.thread, label %11

11:                                               ; preds = %2
  %12 = getelementptr inbounds nuw i8, ptr %6, i64 1096
  %13 = load ptr, ptr %12, align 8, !tbaa !19
  %14 = call i32 (ptr, i64, ptr, ...) @snprintf(ptr noundef nonnull dereferenceable(1) %3, i64 noundef 4096, ptr noundef nonnull @.str.71, ptr noundef %13) #10
  %15 = icmp ugt i32 %14, 4095
  br i1 %15, label %ftp_send_command.exit.thread, label %16

16:                                               ; preds = %11
  %17 = getelementptr inbounds nuw i8, ptr %6, i64 8
  %18 = load ptr, ptr %17, align 8, !tbaa !15
  %.not16.i = icmp eq ptr %18, null
  br i1 %.not16.i, label %ftp_send_command.exit.thread, label %19

19:                                               ; preds = %16
  %20 = call i64 @strlen(ptr noundef nonnull dereferenceable(1) %3) #11
  %21 = trunc i64 %20 to i32
  %22 = call i32 @ffurl_write2(ptr noundef nonnull %18, ptr noundef nonnull %3, i32 noundef %21) #10
  %or.cond = icmp slt i32 %22, 1
  br i1 %or.cond, label %ftp_send_command.exit.thread, label %ftp_send_command.exit

ftp_send_command.exit:                            ; preds = %19
  %23 = call fastcc i32 @ftp_status(ptr noundef nonnull %6, ptr noundef null, ptr noundef nonnull @ftp_move.rnfr_codes)
  %.not = icmp eq i32 %23, 350
  br i1 %.not, label %24, label %ftp_send_command.exit.thread

24:                                               ; preds = %ftp_send_command.exit
  %25 = getelementptr inbounds nuw i8, ptr %1, i64 24
  %26 = load ptr, ptr %25, align 8, !tbaa !26
  call void @av_url_split(ptr noundef null, i32 noundef 0, ptr noundef null, i32 noundef 0, ptr noundef null, i32 noundef 0, ptr noundef null, ptr noundef nonnull %4, i32 noundef 4096, ptr noundef %26) #10
  %27 = call i32 (ptr, i64, ptr, ...) @snprintf(ptr noundef nonnull dereferenceable(1) %3, i64 noundef 4096, ptr noundef nonnull @.str.72, ptr noundef nonnull %4) #10
  %28 = icmp ugt i32 %27, 4095
  br i1 %28, label %ftp_send_command.exit.thread, label %29

29:                                               ; preds = %24
  %30 = load ptr, ptr %17, align 8, !tbaa !15
  %.not16.i11 = icmp eq ptr %30, null
  br i1 %.not16.i11, label %ftp_send_command.exit.thread, label %31

31:                                               ; preds = %29
  %32 = call i64 @strlen(ptr noundef nonnull dereferenceable(1) %3) #11
  %33 = trunc i64 %32 to i32
  %34 = call i32 @ffurl_write2(ptr noundef nonnull %30, ptr noundef nonnull %3, i32 noundef %33) #10
  %or.cond19 = icmp slt i32 %34, 1
  br i1 %or.cond19, label %ftp_send_command.exit.thread, label %ftp_send_command.exit14

ftp_send_command.exit14:                          ; preds = %31
  %35 = call fastcc i32 @ftp_status(ptr noundef nonnull %6, ptr noundef null, ptr noundef nonnull @ftp_move.rnto_codes)
  %.fr = freeze i32 %35
  %36 = icmp eq i32 %.fr, 250
  %spec.select = select i1 %36, i32 0, i32 -5
  br label %ftp_send_command.exit.thread

ftp_send_command.exit.thread:                     ; preds = %ftp_send_command.exit14, %31, %29, %19, %16, %24, %ftp_send_command.exit, %11, %2
  %.0 = phi i32 [ %9, %2 ], [ -38, %11 ], [ -5, %ftp_send_command.exit ], [ -38, %24 ], [ -5, %16 ], [ -5, %19 ], [ -5, %29 ], [ -5, %31 ], [ %spec.select, %ftp_send_command.exit14 ]
  %37 = load ptr, ptr %5, align 8, !tbaa !4
  %38 = getelementptr inbounds nuw i8, ptr %37, i64 8
  %39 = call i32 @ffurl_closep(ptr noundef nonnull %38) #10
  %40 = getelementptr inbounds nuw i8, ptr %37, i64 16
  %41 = call i32 @ffurl_closep(ptr noundef nonnull %40) #10
  %42 = getelementptr inbounds nuw i8, ptr %37, i64 1140
  store i32 5, ptr %42, align 4, !tbaa !23
  %43 = getelementptr inbounds nuw i8, ptr %37, i64 1080
  call void @av_freep(ptr noundef nonnull %43) #10
  %44 = getelementptr inbounds nuw i8, ptr %37, i64 1088
  call void @av_freep(ptr noundef nonnull %44) #10
  %45 = getelementptr inbounds nuw i8, ptr %37, i64 1072
  call void @av_freep(ptr noundef nonnull %45) #10
  %46 = getelementptr inbounds nuw i8, ptr %37, i64 1096
  call void @av_freep(ptr noundef nonnull %46) #10
  %47 = getelementptr inbounds nuw i8, ptr %37, i64 1152
  call void @av_freep(ptr noundef nonnull %47) #10
  call void @llvm.lifetime.end.p0(i64 4096, ptr nonnull %4) #10
  call void @llvm.lifetime.end.p0(i64 4096, ptr nonnull %3) #10
  ret i32 %.0
}